target datalayout = "e-m:e-p270:32:32-p271:32:32-p272:64:64-i64:64-i128:128-f80:128-n8:16:32:64-S128"
target triple = "x86_64-unknown-linux-gnu"

%"class.spacer::pred_transformer::legacy_frames" = type { ptr, %class.vector, %class.obj_map, %class.ref_vector }
%class.vector = type { ptr }
%class.obj_map = type { %class.core_hashtable }
%class.core_hashtable = type <{ ptr, i32, i32, i32, [4 x i8] }>
%class.ref_vector = type { %class.ref_vector_core }
%class.ref_vector_core = type { %class.ref_manager_wrapper, %class.ptr_vector }
%class.ref_manager_wrapper = type { ptr }
%class.ptr_vector = type { %class.vector.0 }
%class.vector.0 = type { ptr }

; Function Attrs: mustprogress nounwind uwtable
define linkonce_odr hidden noundef i32 @_ZNK6vectorI10ref_vectorI4expr11ast_managerELb1EjE4sizeEv(ptr noundef nonnull align 8 dereferenceable(8) %this) #5 comdat align 2 {
entry:
  %retval = alloca i32, align 4
  %this.addr = alloca ptr, align 8
  store ptr %this, ptr %this.addr, align 8
  %this1 = load ptr, ptr %this.addr, align 8
  %m_data = getelementptr inbounds %class.vector, ptr %this1, i32 0, i32 0
  %0 = load ptr, ptr %m_data, align 8
  %cmp = icmp eq ptr %0, null
  br i1 %cmp, label %if.then, label %if.end

if.then:                                          ; preds = %entry
  store i32 0, ptr %retval, align 4
  br label %return

if.end:                                           ; preds = %entry
  %m_data2 = getelementptr inbounds %class.vector, ptr %this1, i32 0, i32 0
  %1 = load ptr, ptr %m_data2, align 8
  %arrayidx = getelementptr inbounds i32, ptr %1, i64 -1
  %2 = load i32, ptr %arrayidx, align 4
  store i32 %2, ptr %retval, align 4
  br label %return

return:                                           ; preds = %if.end, %if.then
  %3 = load i32, ptr %retval, align 4
  ret i32 %3
}

; Function Attrs: mustprogress nounwind uwtable
define linkonce_odr hidden noundef i32 @_ZN6spacer11infty_levelEv() #5 comdat {
entry:
  ret i32 -1
}

; Function Attrs: mustprogress uwtable
define hidden void @_ZN6spacer16pred_transformer13legacy_frames20get_frame_geq_lemmasEjR10ref_vectorI4expr11ast_managerE(ptr noundef nonnull align 8 dereferenceable(56) %this, i32 noundef %lvl, ptr noundef nonnull align 8 dereferenceable(16) %out) #4 align 2 {
entry:
  %this.addr = alloca ptr, align 8
  %lvl.addr = alloca i32, align 4
  %out.addr = alloca ptr, align 8
  %i = alloca i32, align 4
  %sz = alloca i32, align 4
  store ptr %this, ptr %this.addr, align 8
  store i32 %lvl, ptr %lvl.addr, align 4
  store ptr %out, ptr %out.addr, align 8
  %this1 = load ptr, ptr %this.addr, align 8
  %call = call noundef i32 @_ZN6spacer11infty_levelEv()
  %0 = load ptr, ptr %out.addr, align 8
  call void @_ZN6spacer16pred_transformer13legacy_frames16get_frame_lemmasEjR10ref_vectorI4expr11ast_managerE(ptr noundef nonnull align 8 dereferenceable(56) %this1, i32 noundef %call, ptr noundef nonnull align 8 dereferenceable(16) %0)
  %1 = load i32, ptr %lvl.addr, align 4
  store i32 %1, ptr %i, align 4
  %m_levels = getelementptr inbounds %"class.spacer::pred_transformer::legacy_frames", ptr %this1, i32 0, i32 1
  %call2 = call noundef i32 @_ZNK6vectorI10ref_vectorI4expr11ast_managerELb1EjE4sizeEv(ptr noundef nonnull align 8 dereferenceable(8) %m_levels)
  store i32 %call2, ptr %sz, align 4
  br label %for.cond

for.cond:                                         ; preds = %for.inc, %entry
  %2 = load i32, ptr %i, align 4
  %3 = load i32, ptr %sz, align 4
  %cmp = icmp ult i32 %2, %3
  br i1 %cmp, label %for.body, label %for.end

for.body:                                         ; preds = %for.cond
  %4 = load i32, ptr %i, align 4
  %5 = load ptr, ptr %out.addr, align 8
  call void @_ZN6spacer16pred_transformer13legacy_frames16get_frame_lemmasEjR10ref_vectorI4expr11ast_managerE(ptr noundef nonnull align 8 dereferenceable(56) %this1, i32 noundef %4, ptr noundef nonnull align 8 dereferenceable(16) %5)
  br label %for.inc

for.inc:                                          ; preds = %for.body
  %6 = load i32, ptr %i, align 4
  %inc = add i32 %6, 1
  store i32 %inc, ptr %i, align 4
  br label %for.cond, !llvm.loop !8

for.end:                                          ; preds = %for.cond
  ret void
}