; Function Attrs: mustprogress uwtable
define hidden void @_ZN6spacer16pred_transformer13legacy_frames20get_frame_geq_lemmasEjR10ref_vectorI4expr11ast_managerE(ptr noundef nonnull align 8 dereferenceable(56) %this, i32 noundef %lvl, ptr noundef nonnull align 8 dereferenceable(16) %out) local_unnamed_addr #3 align 2 {
entry:
  %m_nodes.i.i.i = getelementptr inbounds i8, ptr %this, i64 48
  %m_nodes.i6.i.i = getelementptr inbounds i8, ptr %out, i64 8
  br label %for.cond.i.i

for.cond.i.i:                                     ; preds = %_ZN15ref_vector_coreI4expr19ref_manager_wrapperIS0_11ast_managerEE9push_backEPS0_.exit.i.i, %entry
  %indvars.iv.i.i = phi i64 [ %indvars.iv.next.i.i, %_ZN15ref_vector_coreI4expr19ref_manager_wrapperIS0_11ast_managerEE9push_backEPS0_.exit.i.i ], [ 0, %entry ]
  %0 = load ptr, ptr %m_nodes.i.i.i, align 8
  %cmp.i.i.i.i = icmp eq ptr %0, null
  br i1 %cmp.i.i.i.i, label %_ZNK15ref_vector_coreI4expr19ref_manager_wrapperIS0_11ast_managerEE4sizeEv.exit.i.i, label %if.end.i.i.i.i

if.end.i.i.i.i:                                   ; preds = %for.cond.i.i
  %arrayidx.i.i.i.i = getelementptr inbounds i8, ptr %0, i64 -4
  %1 = load i32, ptr %arrayidx.i.i.i.i, align 4
  br label %_ZNK15ref_vector_coreI4expr19ref_manager_wrapperIS0_11ast_managerEE4sizeEv.exit.i.i

_ZNK15ref_vector_coreI4expr19ref_manager_wrapperIS0_11ast_managerEE4sizeEv.exit.i.i: ; preds = %if.end.i.i.i.i, %for.cond.i.i
  %retval.0.i.i.i.i = phi i32 [ %1, %if.end.i.i.i.i ], [ 0, %for.cond.i.i ]
  %2 = zext i32 %retval.0.i.i.i.i to i64
  %cmp.i4.i = icmp ult i64 %indvars.iv.i.i, %2
  br i1 %cmp.i4.i, label %for.body.i.i, label %_ZN6spacer16pred_transformer13legacy_frames16get_frame_lemmasEjR10ref_vectorI4expr11ast_managerE.exit

for.body.i.i:                                     ; preds = %_ZNK15ref_vector_coreI4expr19ref_manager_wrapperIS0_11ast_managerEE4sizeEv.exit.i.i
  %arrayidx.i.i5.i.i = getelementptr inbounds ptr, ptr %0, i64 %indvars.iv.i.i
  %3 = load ptr, ptr %arrayidx.i.i5.i.i, align 8
  %tobool.not.i.i.i.i.i.i = icmp eq ptr %3, null
  br i1 %tobool.not.i.i.i.i.i.i, label %_ZN15ref_vector_coreI4expr19ref_manager_wrapperIS0_11ast_managerEE7inc_refEPS0_.exit.i.i.i, label %if.then.i.i.i.i.i.i

if.then.i.i.i.i.i.i:                              ; preds = %for.body.i.i
  %m_ref_count.i.i.i.i.i.i.i = getelementptr inbounds i8, ptr %3, i64 8
  %4 = load i32, ptr %m_ref_count.i.i.i.i.i.i.i, align 4
  %inc.i.i.i.i.i.i.i = add i32 %4, 1
  store i32 %inc.i.i.i.i.i.i.i, ptr %m_ref_count.i.i.i.i.i.i.i, align 4
  br label %_ZN15ref_vector_coreI4expr19ref_manager_wrapperIS0_11ast_managerEE7inc_refEPS0_.exit.i.i.i

_ZN15ref_vector_coreI4expr19ref_manager_wrapperIS0_11ast_managerEE7inc_refEPS0_.exit.i.i.i: ; preds = %if.then.i.i.i.i.i.i, %for.body.i.i
  %5 = load ptr, ptr %m_nodes.i6.i.i, align 8
  %cmp.i.i7.i.i = icmp eq ptr %5, null
  br i1 %cmp.i.i7.i.i, label %if.then.i.i.i.i, label %lor.lhs.false.i.i.i.i

lor.lhs.false.i.i.i.i:                            ; preds = %_ZN15ref_vector_coreI4expr19ref_manager_wrapperIS0_11ast_managerEE7inc_refEPS0_.exit.i.i.i
  %arrayidx.i.i8.i.i = getelementptr inbounds i8, ptr %5, i64 -4
  %6 = load i32, ptr %arrayidx.i.i8.i.i, align 4
  %arrayidx4.i.i.i.i = getelementptr inbounds i8, ptr %5, i64 -8
  %7 = load i32, ptr %arrayidx4.i.i.i.i, align 4
  %cmp5.i.i.i.i = icmp eq i32 %6, %7
  br i1 %cmp5.i.i.i.i, label %if.then.i.i.i.i, label %_ZN15ref_vector_coreI4expr19ref_manager_wrapperIS0_11ast_managerEE9push_backEPS0_.exit.i.i

if.then.i.i.i.i:                                  ; preds = %lor.lhs.false.i.i.i.i, %_ZN15ref_vector_coreI4expr19ref_manager_wrapperIS0_11ast_managerEE7inc_refEPS0_.exit.i.i.i
  tail call void @_ZN6vectorIP4exprLb0EjE13expand_vectorEv(ptr noundef nonnull align 8 dereferenceable(8) %m_nodes.i6.i.i)
  %.pre.i.i.i.i = load ptr, ptr %m_nodes.i6.i.i, align 8
  %arrayidx8.phi.trans.insert.i.i.i.i = getelementptr inbounds i8, ptr %.pre.i.i.i.i, i64 -4
  %.pre1.i.i.i.i = load i32, ptr %arrayidx8.phi.trans.insert.i.i.i.i, align 4
  br label %_ZN15ref_vector_coreI4expr19ref_manager_wrapperIS0_11ast_managerEE9push_backEPS0_.exit.i.i

_ZN15ref_vector_coreI4expr19ref_manager_wrapperIS0_11ast_managerEE9push_backEPS0_.exit.i.i: ; preds = %if.then.i.i.i.i, %lor.lhs.false.i.i.i.i
  %8 = phi i32 [ %.pre1.i.i.i.i, %if.then.i.i.i.i ], [ %6, %lor.lhs.false.i.i.i.i ]
  %9 = phi ptr [ %.pre.i.i.i.i, %if.then.i.i.i.i ], [ %5, %lor.lhs.false.i.i.i.i ]
  %idx.ext.i.i.i.i = zext i32 %8 to i64
  %add.ptr.i.i.i.i = getelementptr inbounds ptr, ptr %9, i64 %idx.ext.i.i.i.i
  store ptr %3, ptr %add.ptr.i.i.i.i, align 8
  %10 = load ptr, ptr %m_nodes.i6.i.i, align 8
  %arrayidx10.i.i.i.i = getelementptr inbounds i8, ptr %10, i64 -4
  %11 = load i32, ptr %arrayidx10.i.i.i.i, align 4
  %inc.i.i.i.i = add i32 %11, 1
  store i32 %inc.i.i.i.i, ptr %arrayidx10.i.i.i.i, align 4
  %indvars.iv.next.i.i = add nuw nsw i64 %indvars.iv.i.i, 1
  br label %for.cond.i.i, !llvm.loop !12

_ZN6spacer16pred_transformer13legacy_frames16get_frame_lemmasEjR10ref_vectorI4expr11ast_managerE.exit: ; preds = %_ZNK15ref_vector_coreI4expr19ref_manager_wrapperIS0_11ast_managerEE4sizeEv.exit.i.i
  %m_levels = getelementptr inbounds i8, ptr %this, i64 8
  %12 = load ptr, ptr %m_levels, align 8
  %cmp.i = icmp eq ptr %12, null
  br i1 %cmp.i, label %for.end, label %_ZNK6vectorI10ref_vectorI4expr11ast_managerELb1EjE4sizeEv.exit

_ZNK6vectorI10ref_vectorI4expr11ast_managerELb1EjE4sizeEv.exit: ; preds = %_ZN6spacer16pred_transformer13legacy_frames16get_frame_lemmasEjR10ref_vectorI4expr11ast_managerE.exit
  %arrayidx.i = getelementptr inbounds i8, ptr %12, i64 -4
  %13 = load i32, ptr %arrayidx.i, align 4
  %cmp4 = icmp ugt i32 %13, %lvl
  br i1 %cmp4, label %for.body, label %for.end

for.body:                                         ; preds = %_ZNK6vectorI10ref_vectorI4expr11ast_managerELb1EjE4sizeEv.exit, %for.body
  %i.05 = phi i32 [ %inc, %for.body ], [ %lvl, %_ZNK6vectorI10ref_vectorI4expr11ast_managerELb1EjE4sizeEv.exit ]
  tail call void @_ZN6spacer16pred_transformer13legacy_frames16get_frame_lemmasEjR10ref_vectorI4expr11ast_managerE(ptr noundef nonnull align 8 dereferenceable(56) %this, i32 noundef %i.05, ptr noundef nonnull align 8 dereferenceable(16) %out)
  %inc = add i32 %i.05, 1
  %exitcond.not = icmp eq i32 %inc, %13
  br i1 %exitcond.not, label %for.end, label %for.body, !llvm.loop !13

for.end:                                          ; preds = %for.body, %_ZN6spacer16pred_transformer13legacy_frames16get_frame_lemmasEjR10ref_vectorI4expr11ast_managerE.exit, %_ZNK6vectorI10ref_vectorI4expr11ast_managerELb1EjE4sizeEv.exit
  ret void
}